; Function Attrs: mustprogress uwtable
define hidden void @_ZN11ast_pp_util15display_assertsERSoRK10ref_vectorI4expr11ast_managerEb(ptr noundef nonnull align 8 dereferenceable(1232) %this, ptr noundef nonnull align 8 dereferenceable(8) %out, ptr nocapture noundef nonnull readonly align 8 dereferenceable(16) %fmls, i1 noundef zeroext %neat) local_unnamed_addr #3 align 2 personality ptr @__gxx_personality_v0 {
entry:
  %ref.tmp = alloca %class.params_ref, align 8
  %ll_smt2_pp = alloca %class.ast_smt_pp, align 8
  br i1 %neat, label %if.then, label %invoke.cont9

if.then:                                          ; preds = %entry
  %m_nodes.i = getelementptr inbounds i8, ptr %fmls, i64 8
  %0 = load ptr, ptr %m_nodes.i, align 8
  %cmp.i.i.i = icmp eq ptr %0, null
  br i1 %cmp.i.i.i, label %if.end, label %_ZNK15ref_vector_coreI4expr19ref_manager_wrapperIS0_11ast_managerEE3endEv.exit

_ZNK15ref_vector_coreI4expr19ref_manager_wrapperIS0_11ast_managerEE3endEv.exit: ; preds = %if.then
  %arrayidx.i.i.i = getelementptr inbounds i8, ptr %0, i64 -4
  %1 = load i32, ptr %arrayidx.i.i.i, align 4
  %2 = zext i32 %1 to i64
  %add.ptr.i = getelementptr inbounds ptr, ptr %0, i64 %2
  %cmp.not24 = icmp eq i32 %1, 0
  br i1 %cmp.not24, label %if.end, label %for.body.lr.ph

for.body.lr.ph:                                   ; preds = %_ZNK15ref_vector_coreI4expr19ref_manager_wrapperIS0_11ast_managerEE3endEv.exit
  %m_env = getelementptr inbounds i8, ptr %this, i64 32
  br label %for.body

for.body:                                         ; preds = %for.body.lr.ph, %invoke.cont
  %__begin2.025 = phi ptr [ %0, %for.body.lr.ph ], [ %incdec.ptr, %invoke.cont ]
  %3 = load ptr, ptr %__begin2.025, align 8
  %call3 = call noundef nonnull align 8 dereferenceable(8) ptr @_ZStlsISt11char_traitsIcEERSt13basic_ostreamIcT_ES5_PKc(ptr noundef nonnull align 8 dereferenceable(8) %out, ptr noundef nonnull @.str.2)
  store ptr null, ptr %ref.tmp, align 8
  %call4 = invoke noundef nonnull align 8 dereferenceable(8) ptr @_Z11ast_smt2_ppRSoP4exprR19smt2_pp_environmentRK10params_refjjPKc(ptr noundef nonnull align 8 dereferenceable(8) %out, ptr noundef %3, ptr noundef nonnull align 8 dereferenceable(56) %m_env, ptr noundef nonnull align 8 dereferenceable(8) %ref.tmp, i32 noundef 0, i32 noundef 0, ptr noundef null)
          to label %invoke.cont unwind label %lpad

invoke.cont:                                      ; preds = %for.body
  call void @_ZN10params_refD1Ev(ptr noundef nonnull align 8 dereferenceable(8) %ref.tmp) #14
  %call5 = call noundef nonnull align 8 dereferenceable(8) ptr @_ZStlsISt11char_traitsIcEERSt13basic_ostreamIcT_ES5_PKc(ptr noundef nonnull align 8 dereferenceable(8) %out, ptr noundef nonnull @.str.3)
  %incdec.ptr = getelementptr inbounds i8, ptr %__begin2.025, i64 8
  %cmp.not = icmp eq ptr %incdec.ptr, %add.ptr.i
  br i1 %cmp.not, label %if.end, label %for.body

lpad:                                             ; preds = %for.body
  %4 = landingpad { ptr, i32 }
          cleanup
  call void @_ZN10params_refD1Ev(ptr noundef nonnull align 8 dereferenceable(8) %ref.tmp) #14
  br label %eh.resume

invoke.cont9:                                     ; preds = %entry
  %5 = load ptr, ptr %this, align 8
  call void @_ZN10ast_smt_ppC1ER11ast_manager(ptr noundef nonnull align 8 dereferenceable(137) %ll_smt2_pp, ptr noundef nonnull align 8 dereferenceable(976) %5)
  %m_nodes.i14 = getelementptr inbounds i8, ptr %fmls, i64 8
  %6 = load ptr, ptr %m_nodes.i14, align 8
  %cmp.i.i.i16 = icmp eq ptr %6, null
  br i1 %cmp.i.i.i16, label %for.end25, label %_ZNK15ref_vector_coreI4expr19ref_manager_wrapperIS0_11ast_managerEE3endEv.exit21

_ZNK15ref_vector_coreI4expr19ref_manager_wrapperIS0_11ast_managerEE3endEv.exit21: ; preds = %invoke.cont9
  %arrayidx.i.i.i18 = getelementptr inbounds i8, ptr %6, i64 -4
  %7 = load i32, ptr %arrayidx.i.i.i18, align 4
  %8 = zext i32 %7 to i64
  %add.ptr.i20 = getelementptr inbounds ptr, ptr %6, i64 %8
  %cmp15.not22 = icmp eq i32 %7, 0
  br i1 %cmp15.not22, label %for.end25, label %for.body16

for.body16:                                       ; preds = %_ZNK15ref_vector_coreI4expr19ref_manager_wrapperIS0_11ast_managerEE3endEv.exit21, %for.inc23
  %__begin27.023 = phi ptr [ %incdec.ptr24, %for.inc23 ], [ %6, %_ZNK15ref_vector_coreI4expr19ref_manager_wrapperIS0_11ast_managerEE3endEv.exit21 ]
  %9 = load ptr, ptr %__begin27.023, align 8
  %call19 = invoke noundef nonnull align 8 dereferenceable(8) ptr @_ZStlsISt11char_traitsIcEERSt13basic_ostreamIcT_ES5_PKc(ptr noundef nonnull align 8 dereferenceable(8) %out, ptr noundef nonnull @.str.2)
          to label %invoke.cont18 unwind label %lpad8

invoke.cont18:                                    ; preds = %for.body16
  invoke void @_ZN10ast_smt_pp17display_expr_smt2ERSoP4exprjjPKPKc(ptr noundef nonnull align 8 dereferenceable(137) %ll_smt2_pp, ptr noundef nonnull align 8 dereferenceable(8) %out, ptr noundef %9, i32 noundef 0, i32 noundef 0, ptr noundef null)
          to label %invoke.cont20 unwind label %lpad8

invoke.cont20:                                    ; preds = %invoke.cont18
  %call22 = invoke noundef nonnull align 8 dereferenceable(8) ptr @_ZStlsISt11char_traitsIcEERSt13basic_ostreamIcT_ES5_PKc(ptr noundef nonnull align 8 dereferenceable(8) %out, ptr noundef nonnull @.str.3)
          to label %for.inc23 unwind label %lpad8

for.inc23:                                        ; preds = %invoke.cont20
  %incdec.ptr24 = getelementptr inbounds i8, ptr %__begin27.023, i64 8
  %cmp15.not = icmp eq ptr %incdec.ptr24, %add.ptr.i20
  br i1 %cmp15.not, label %for.end25, label %for.body16

lpad8:                                            ; preds = %invoke.cont20, %invoke.cont18, %for.body16
  %10 = landingpad { ptr, i32 }
          cleanup
  call void @_ZN10ast_smt_ppD2Ev(ptr noundef nonnull align 8 dereferenceable(137) %ll_smt2_pp) #14
  br label %eh.resume

for.end25:                                        ; preds = %for.inc23, %invoke.cont9, %_ZNK15ref_vector_coreI4expr19ref_manager_wrapperIS0_11ast_managerEE3endEv.exit21
  call void @_ZN10ast_smt_ppD2Ev(ptr noundef nonnull align 8 dereferenceable(137) %ll_smt2_pp) #14
  br label %if.end

if.end:                                           ; preds = %invoke.cont, %if.then, %_ZNK15ref_vector_coreI4expr19ref_manager_wrapperIS0_11ast_managerEE3endEv.exit, %for.end25
  ret void

eh.resume:                                        ; preds = %lpad8, %lpad
  %.pn = phi { ptr, i32 } [ %4, %lpad ], [ %10, %lpad8 ]
  resume { ptr, i32 } %.pn
}